target datalayout = "e-m:e-p270:32:32-p271:32:32-p272:64:64-i64:64-i128:128-f80:128-n8:16:32:64-S128"
target triple = "x86_64-pc-linux-gnu"

%struct.PgStat_PendingWalStats = type { i64, i64, %struct.instr_time, %struct.instr_time }
%struct.instr_time = type { i64 }
%struct.timespec = type { i64, i64 }

@wal_sync_method = dso_local global i32 1, align 4
@track_wal_io_timing = dso_local global i8 0, align 1
@wal_segment_size = dso_local global i32 16777216, align 4
@.str.14 = private unnamed_addr constant [7 x i8] c"xlog.c\00", align 1
@enableFsync = external global i8, align 1
@.str.76 = private unnamed_addr constant [30 x i8] c"could not fsync file \22%s\22: %m\00", align 1
@track_io_timing = external global i8, align 1
@.str.77 = private unnamed_addr constant [34 x i8] c"could not fdatasync file \22%s\22: %m\00", align 1
@.str.78 = private unnamed_addr constant [35 x i8] c"unrecognized \22wal_sync_method\22: %d\00", align 1
@__func__.issue_xlog_fsync = private unnamed_addr constant [17 x i8] c"issue_xlog_fsync\00", align 1
@PendingWalStats = external global %struct.PgStat_PendingWalStats, align 8
@my_wait_event_info = external global ptr, align 8

; Function Attrs: inlinehint nounwind uwtable
define internal i64 @pg_clock_gettime_ns() #6 {
  %1 = alloca %struct.instr_time, align 8
  %2 = alloca %struct.timespec, align 8
  call void @llvm.lifetime.start.p0(i64 16, ptr %2) #16
  %3 = call i32 @clock_gettime(i32 noundef 1, ptr noundef %2) #16
  %4 = getelementptr inbounds nuw %struct.timespec, ptr %2, i32 0, i32 0
  %5 = load i64, ptr %4, align 8
  %6 = mul i64 %5, 1000000000
  %7 = getelementptr inbounds nuw %struct.timespec, ptr %2, i32 0, i32 1
  %8 = load i64, ptr %7, align 8
  %9 = add i64 %6, %8
  %10 = getelementptr inbounds nuw %struct.instr_time, ptr %1, i32 0, i32 0
  store i64 %9, ptr %10, align 8
  call void @llvm.lifetime.end.p0(i64 16, ptr %2) #16
  %11 = getelementptr inbounds nuw %struct.instr_time, ptr %1, i32 0, i32 0
  %12 = load i64, ptr %11, align 8
  ret i64 %12
}

; Function Attrs: inlinehint nounwind uwtable
define internal void @pgstat_report_wait_end() #6 {
  %1 = load ptr, ptr @my_wait_event_info, align 8
  store volatile i32 0, ptr %1, align 4
  ret void
}

; Function Attrs: inlinehint nounwind uwtable
define internal void @pgstat_report_wait_start(i32 noundef %0) #6 {
  %2 = alloca i32, align 4
  store i32 %0, ptr %2, align 4
  %3 = load i32, ptr %2, align 4
  %4 = load ptr, ptr @my_wait_event_info, align 8
  store volatile i32 %3, ptr %4, align 4
  ret void
}

; Function Attrs: nounwind uwtable
define dso_local void @issue_xlog_fsync(i32 noundef %0, i64 noundef %1, i32 noundef %2) #0 {
  %4 = alloca i32, align 4
  %5 = alloca i64, align 8
  %6 = alloca i32, align 4
  %7 = alloca ptr, align 8
  %8 = alloca %struct.instr_time, align 8
  %9 = alloca i32, align 4
  %10 = alloca %struct.instr_time, align 8
  %11 = alloca [64 x i8], align 16
  %12 = alloca i32, align 4
  %13 = alloca %struct.instr_time, align 8
  %14 = alloca %struct.instr_time, align 8
  store i32 %0, ptr %4, align 4
  store i64 %1, ptr %5, align 8
  store i32 %2, ptr %6, align 4
  call void @llvm.lifetime.start.p0(i64 8, ptr %7) #16
  store ptr null, ptr %7, align 8
  call void @llvm.lifetime.start.p0(i64 8, ptr %8) #16
  %15 = load i8, ptr @enableFsync, align 1, !range !4, !noundef !5
  %16 = trunc i8 %15 to i1
  br i1 %16, label %17, label %23

17:                                               ; preds = %3
  %18 = load i32, ptr @wal_sync_method, align 4
  %19 = icmp eq i32 %18, 2
  br i1 %19, label %23, label %20

20:                                               ; preds = %17
  %21 = load i32, ptr @wal_sync_method, align 4
  %22 = icmp eq i32 %21, 4
  br i1 %22, label %23, label %24

23:                                               ; preds = %20, %17, %3
  store i32 1, ptr %9, align 4
  br label %104

24:                                               ; preds = %20
  call void @llvm.lifetime.start.p0(i64 8, ptr %10) #16
  %25 = load i8, ptr @track_io_timing, align 1, !range !4, !noundef !5
  %26 = trunc i8 %25 to i1
  br i1 %26, label %30, label %27

27:                                               ; preds = %24
  %28 = load i8, ptr @track_wal_io_timing, align 1, !range !4, !noundef !5
  %29 = trunc i8 %28 to i1
  br label %30

30:                                               ; preds = %27, %24
  %31 = phi i1 [ true, %24 ], [ %29, %27 ]
  %32 = call i64 @pgstat_prepare_io_time(i1 noundef zeroext %31)
  %33 = getelementptr inbounds nuw %struct.instr_time, ptr %10, i32 0, i32 0
  store i64 %32, ptr %33, align 8
  call void @llvm.memcpy.p0.p0.i64(ptr align 8 %8, ptr align 8 %10, i64 8, i1 false)
  call void @llvm.lifetime.end.p0(i64 8, ptr %10) #16
  call void @pgstat_report_wait_start(i32 noundef 167772234)
  %34 = load i32, ptr @wal_sync_method, align 4
  switch i32 %34, label %48 [
    i32 0, label %35
    i32 1, label %41
    i32 2, label %47
    i32 4, label %47
  ]

35:                                               ; preds = %30
  %36 = load i32, ptr %4, align 4
  %37 = call i32 @pg_fsync_no_writethrough(i32 noundef %36)
  %38 = icmp ne i32 %37, 0
  br i1 %38, label %39, label %40

39:                                               ; preds = %35
  store ptr @.str.76, ptr %7, align 8
  br label %40

40:                                               ; preds = %39, %35
  br label %61

41:                                               ; preds = %30
  %42 = load i32, ptr %4, align 4
  %43 = call i32 @pg_fdatasync(i32 noundef %42)
  %44 = icmp ne i32 %43, 0
  br i1 %44, label %45, label %46

45:                                               ; preds = %41
  store ptr @.str.77, ptr %7, align 8
  br label %46

46:                                               ; preds = %45, %41
  br label %61

47:                                               ; preds = %30, %30
  br label %61

48:                                               ; preds = %30
  br label %49

49:                                               ; preds = %48
  br i1 true, label %50, label %52

50:                                               ; preds = %49
  %51 = call zeroext i1 @errstart_cold(i32 noundef 23, ptr noundef null) #17
  br i1 %51, label %54, label %58

52:                                               ; preds = %49
  %53 = call zeroext i1 @errstart(i32 noundef 23, ptr noundef null)
  br i1 %53, label %54, label %58

54:                                               ; preds = %52, %50
  %55 = call i32 @errcode(i32 noundef 50856066)
  %56 = load i32, ptr @wal_sync_method, align 4
  %57 = call i32 (ptr, ...) @errmsg_internal(ptr noundef @.str.78, i32 noundef %56)
  call void @errfinish(ptr noundef @.str.14, i32 noundef 8751, ptr noundef @__func__.issue_xlog_fsync)
  br label %58

58:                                               ; preds = %54, %52, %50
  unreachable

59:                                               ; No predecessors!
  br label %60

60:                                               ; preds = %59
  br label %61

61:                                               ; preds = %60, %47, %46, %40
  %62 = load ptr, ptr %7, align 8
  %63 = icmp ne ptr %62, null
  br i1 %63, label %64, label %86

64:                                               ; preds = %61
  call void @llvm.lifetime.start.p0(i64 64, ptr %11) #16
  call void @llvm.lifetime.start.p0(i64 4, ptr %12) #16
  %65 = call ptr @__errno_location() #18
  %66 = load i32, ptr %65, align 4
  store i32 %66, ptr %12, align 4
  %67 = getelementptr inbounds [64 x i8], ptr %11, i64 0, i64 0
  %68 = load i32, ptr %6, align 4
  %69 = load i64, ptr %5, align 8
  %70 = load i32, ptr @wal_segment_size, align 4
  call void @XLogFileName(ptr noundef %67, i32 noundef %68, i64 noundef %69, i32 noundef %70)
  %71 = load i32, ptr %12, align 4
  %72 = call ptr @__errno_location() #18
  store i32 %71, ptr %72, align 4
  br label %73

73:                                               ; preds = %64
  br i1 true, label %74, label %76

74:                                               ; preds = %73
  %75 = call zeroext i1 @errstart_cold(i32 noundef 23, ptr noundef null) #17
  br i1 %75, label %78, label %83

76:                                               ; preds = %73
  %77 = call zeroext i1 @errstart(i32 noundef 23, ptr noundef null)
  br i1 %77, label %78, label %83

78:                                               ; preds = %76, %74
  %79 = call i32 @errcode_for_file_access()
  %80 = load ptr, ptr %7, align 8
  %81 = getelementptr inbounds [64 x i8], ptr %11, i64 0, i64 0
  %82 = call i32 (ptr, ...) @errmsg(ptr noundef %80, ptr noundef %81)
  call void @errfinish(ptr noundef @.str.14, i32 noundef 8765, ptr noundef @__func__.issue_xlog_fsync)
  br label %83

83:                                               ; preds = %78, %76, %74
  unreachable

84:                                               ; No predecessors!
  br label %85

85:                                               ; preds = %84
  call void @llvm.lifetime.end.p0(i64 4, ptr %12) #16
  call void @llvm.lifetime.end.p0(i64 64, ptr %11) #16
  br label %86

86:                                               ; preds = %85, %61
  call void @pgstat_report_wait_end()
  %87 = load i8, ptr @track_wal_io_timing, align 1, !range !4, !noundef !5
  %88 = trunc i8 %87 to i1
  br i1 %88, label %89, label %99

89:                                               ; preds = %86
  call void @llvm.lifetime.start.p0(i64 8, ptr %13) #16
  call void @llvm.lifetime.start.p0(i64 8, ptr %14) #16
  %90 = call i64 @pg_clock_gettime_ns()
  %91 = getelementptr inbounds nuw %struct.instr_time, ptr %14, i32 0, i32 0
  store i64 %90, ptr %91, align 8
  call void @llvm.memcpy.p0.p0.i64(ptr align 8 %13, ptr align 8 %14, i64 8, i1 false)
  call void @llvm.lifetime.end.p0(i64 8, ptr %14) #16
  %92 = getelementptr inbounds nuw %struct.instr_time, ptr %13, i32 0, i32 0
  %93 = load i64, ptr %92, align 8
  %94 = getelementptr inbounds nuw %struct.instr_time, ptr %8, i32 0, i32 0
  %95 = load i64, ptr %94, align 8
  %96 = sub i64 %93, %95
  %97 = load i64, ptr getelementptr inbounds nuw (%struct.PgStat_PendingWalStats, ptr @PendingWalStats, i32 0, i32 3), align 8
  %98 = add i64 %97, %96
  store i64 %98, ptr getelementptr inbounds nuw (%struct.PgStat_PendingWalStats, ptr @PendingWalStats, i32 0, i32 3), align 8
  call void @llvm.lifetime.end.p0(i64 8, ptr %13) #16
  br label %99

99:                                               ; preds = %89, %86
  %100 = getelementptr inbounds nuw %struct.instr_time, ptr %8, i32 0, i32 0
  %101 = load i64, ptr %100, align 8
  call void @pgstat_count_io_op_time(i32 noundef 2, i32 noundef 3, i32 noundef 1, i64 %101, i32 noundef 1, i64 noundef 0)
  %102 = load i64, ptr getelementptr inbounds nuw (%struct.PgStat_PendingWalStats, ptr @PendingWalStats, i32 0, i32 1), align 8
  %103 = add i64 %102, 1
  store i64 %103, ptr getelementptr inbounds nuw (%struct.PgStat_PendingWalStats, ptr @PendingWalStats, i32 0, i32 1), align 8
  store i32 0, ptr %9, align 4
  br label %104

104:                                              ; preds = %99, %23
  call void @llvm.lifetime.end.p0(i64 8, ptr %8) #16
  call void @llvm.lifetime.end.p0(i64 8, ptr %7) #16
  %105 = load i32, ptr %9, align 4
  switch i32 %105, label %107 [
    i32 0, label %106
    i32 1, label %106
  ]

106:                                              ; preds = %104, %104
  ret void

107:                                              ; preds = %104
  unreachable
}