; Function Attrs: nounwind uwtable
define dso_local void @issue_xlog_fsync(i32 noundef %0, i64 noundef %1, i32 noundef %2) local_unnamed_addr #0 {
  %4 = alloca %struct.timespec, align 8
  %5 = alloca [64 x i8], align 16
  %6 = load i8, ptr @enableFsync, align 1, !range !4, !noundef !5
  %7 = trunc nuw i8 %6 to i1
  br i1 %7, label %switch.early.test, label %50

switch.early.test:                                ; preds = %3
  %8 = load i32, ptr @wal_sync_method, align 4
  switch i32 %8, label %9 [
    i32 4, label %50
    i32 2, label %50
  ]

9:                                                ; preds = %switch.early.test
  %10 = load i8, ptr @track_io_timing, align 1, !range !4, !noundef !5
  %11 = trunc nuw i8 %10 to i1
  %12 = load i8, ptr @track_wal_io_timing, align 1, !range !4
  %13 = trunc nuw i8 %12 to i1
  %14 = select i1 %11, i1 true, i1 %13
  %15 = tail call i64 @pgstat_prepare_io_time(i1 noundef zeroext %14) #26
  %16 = load ptr, ptr @my_wait_event_info, align 8
  store volatile i32 167772234, ptr %16, align 4
  %17 = load i32, ptr @wal_sync_method, align 4
  switch i32 %17, label %20 [
    i32 0, label %18
    i32 1, label %25
    i32 2, label %.thread
    i32 4, label %.thread
  ]

18:                                               ; preds = %9
  %19 = tail call i32 @pg_fsync_no_writethrough(i32 noundef %0) #26
  %.not16 = icmp eq i32 %19, 0
  br i1 %.not16, label %.thread, label %27

20:                                               ; preds = %9
  %21 = tail call zeroext i1 @errstart_cold(i32 noundef 23, ptr noundef null) #27
  tail call void @llvm.assume(i1 %21)
  %22 = tail call i32 @errcode(i32 noundef 50856066) #26
  %23 = load i32, ptr @wal_sync_method, align 4
  %24 = tail call i32 (ptr, ...) @errmsg_internal(ptr noundef nonnull @.str.78, i32 noundef %23) #26
  tail call void @errfinish(ptr noundef nonnull @.str.14, i32 noundef 8751, ptr noundef nonnull @__func__.issue_xlog_fsync) #26
  unreachable

25:                                               ; preds = %9
  %26 = tail call i32 @pg_fdatasync(i32 noundef %0) #26
  %.not = icmp eq i32 %26, 0
  br i1 %.not, label %.thread, label %27

27:                                               ; preds = %18, %25
  %.023 = phi ptr [ @.str.76, %18 ], [ @.str.77, %25 ]
  call void @llvm.lifetime.start.p0(i64 64, ptr nonnull %5) #26
  %28 = tail call ptr @__errno_location() #28
  %29 = load i32, ptr %28, align 4
  %30 = load i32, ptr @wal_segment_size, align 4
  call fastcc void @XLogFileName(ptr noundef %5, i32 noundef %2, i64 noundef %1, i32 noundef %30)
  store i32 %29, ptr %28, align 4
  %31 = call zeroext i1 @errstart_cold(i32 noundef 23, ptr noundef null) #27
  call void @llvm.assume(i1 %31)
  %32 = call i32 @errcode_for_file_access() #26
  %33 = call i32 (ptr, ...) @errmsg(ptr noundef nonnull %.023, ptr noundef nonnull %5) #26
  call void @errfinish(ptr noundef nonnull @.str.14, i32 noundef 8765, ptr noundef nonnull @__func__.issue_xlog_fsync) #26
  unreachable

.thread:                                          ; preds = %9, %9, %18, %25
  %34 = load ptr, ptr @my_wait_event_info, align 8
  store volatile i32 0, ptr %34, align 4
  %35 = load i8, ptr @track_wal_io_timing, align 1, !range !4, !noundef !5
  %36 = trunc nuw i8 %35 to i1
  br i1 %36, label %37, label %47

37:                                               ; preds = %.thread
  call void @llvm.lifetime.start.p0(i64 16, ptr nonnull %4) #26
  %38 = call i32 @clock_gettime(i32 noundef 1, ptr noundef nonnull %4) #26
  %39 = load i64, ptr %4, align 8
  %40 = mul i64 %39, 1000000000
  %41 = getelementptr inbounds nuw i8, ptr %4, i64 8
  %42 = load i64, ptr %41, align 8
  call void @llvm.lifetime.end.p0(i64 16, ptr nonnull %4) #26
  %43 = load i64, ptr getelementptr inbounds nuw (i8, ptr @PendingWalStats, i64 24), align 8
  %44 = sub i64 %42, %15
  %45 = add i64 %44, %40
  %46 = add i64 %45, %43
  store i64 %46, ptr getelementptr inbounds nuw (i8, ptr @PendingWalStats, i64 24), align 8
  br label %47

47:                                               ; preds = %37, %.thread
  call void @pgstat_count_io_op_time(i32 noundef 2, i32 noundef 3, i32 noundef 1, i64 %15, i32 noundef 1, i64 noundef 0) #26
  %48 = load i64, ptr getelementptr inbounds nuw (i8, ptr @PendingWalStats, i64 8), align 8
  %49 = add i64 %48, 1
  store i64 %49, ptr getelementptr inbounds nuw (i8, ptr @PendingWalStats, i64 8), align 8
  br label %50

50:                                               ; preds = %3, %switch.early.test, %switch.early.test, %47
  ret void
}